target datalayout = "e-m:e-p270:32:32-p271:32:32-p272:64:64-i64:64-i128:128-f80:128-n8:16:32:64-S128"
target triple = "x86_64-pc-linux-gnu"

%"class.icu_77::UObject" = type { ptr }
%"struct.icu_77::(anonymous namespace)::RelDateFmtDataSink" = type <{ %"class.icu_77::ResourceSink", ptr, i32, [4 x i8] }>
%"class.icu_77::ResourceSink" = type { %"class.icu_77::UObject" }
%"struct.icu_77::URelativeString" = type { i32, i32, ptr }
%"class.icu_77::ResourceTable" = type <{ ptr, ptr, ptr, ptr, i32, [4 x i8] }>

; Function Attrs: inlinehint mustprogress nounwind willreturn memory(read) uwtable
define available_externally i32 @atoi(ptr noundef nonnull %0) #12 {
  %2 = alloca ptr, align 8
  store ptr %0, ptr %2, align 8, !tbaa !95
  %3 = load ptr, ptr %2, align 8, !tbaa !95
  %4 = call i64 @strtol(ptr noundef %3, ptr noundef null, i32 noundef 10) #13
  %5 = trunc i64 %4 to i32
  ret i32 %5
}

; Function Attrs: mustprogress uwtable
define internal void @_ZN6icu_7712_GLOBAL__N_118RelDateFmtDataSink3putEPKcRNS_13ResourceValueEaR10UErrorCode(ptr noundef nonnull align 8 dereferenceable(20) %0, ptr noundef %1, ptr noundef nonnull align 8 dereferenceable(8) %2, i8 noundef signext %3, ptr noundef nonnull align 4 dereferenceable(4) %4) unnamed_addr #1 align 2 {
  %6 = alloca ptr, align 8
  %7 = alloca ptr, align 8
  %8 = alloca ptr, align 8
  %9 = alloca i8, align 1
  %10 = alloca ptr, align 8
  %11 = alloca %"class.icu_77::ResourceTable", align 8
  %12 = alloca i32, align 4
  %13 = alloca i32, align 4
  %14 = alloca i32, align 4
  %15 = alloca i32, align 4
  store ptr %0, ptr %6, align 8, !tbaa !102
  store ptr %1, ptr %7, align 8, !tbaa !95
  store ptr %2, ptr %8, align 8, !tbaa !116
  store i8 %3, ptr %9, align 1, !tbaa !51
  store ptr %4, ptr %10, align 8, !tbaa !43
  %16 = load ptr, ptr %6, align 8
  call void @llvm.lifetime.start.p0(i64 40, ptr %11) #13
  %17 = load ptr, ptr %8, align 8, !tbaa !116
  %18 = load ptr, ptr %10, align 8, !tbaa !43
  %19 = load ptr, ptr %17, align 8, !tbaa !8
  %20 = getelementptr inbounds ptr, ptr %19, i64 11
  %21 = load ptr, ptr %20, align 8
  call void %21(ptr dead_on_unwind writable sret(%"class.icu_77::ResourceTable") align 8 %11, ptr noundef nonnull align 8 dereferenceable(8) %17, ptr noundef nonnull align 4 dereferenceable(4) %18)
  call void @llvm.lifetime.start.p0(i64 4, ptr %12) #13
  store i32 0, ptr %12, align 4, !tbaa !57
  call void @llvm.lifetime.start.p0(i64 4, ptr %13) #13
  store i32 0, ptr %13, align 4, !tbaa !57
  call void @llvm.lifetime.start.p0(i64 4, ptr %14) #13
  store i32 0, ptr %14, align 4, !tbaa !57
  br label %22

22:                                               ; preds = %77, %5
  %23 = load i32, ptr %14, align 4, !tbaa !57
  %24 = load ptr, ptr %8, align 8, !tbaa !116
  %25 = call noundef signext i8 @_ZNK6icu_7713ResourceTable14getKeyAndValueEiRPKcRNS_13ResourceValueE(ptr noundef nonnull align 8 dereferenceable(37) %11, i32 noundef %23, ptr noundef nonnull align 8 dereferenceable(8) %7, ptr noundef nonnull align 8 dereferenceable(8) %24)
  %26 = icmp ne i8 %25, 0
  br i1 %26, label %28, label %27

27:                                               ; preds = %22
  call void @llvm.lifetime.end.p0(i64 4, ptr %14) #13
  br label %80

28:                                               ; preds = %22
  call void @llvm.lifetime.start.p0(i64 4, ptr %15) #13
  %29 = load ptr, ptr %7, align 8, !tbaa !95
  %30 = call i32 @atoi(ptr noundef %29) #9
  store i32 %30, ptr %15, align 4, !tbaa !57
  %31 = load i32, ptr %15, align 4, !tbaa !57
  %32 = add nsw i32 %31, 2
  store i32 %32, ptr %12, align 4, !tbaa !57
  %33 = load i32, ptr %12, align 4, !tbaa !57
  %34 = icmp sle i32 0, %33
  br i1 %34, label %35, label %76

35:                                               ; preds = %28
  %36 = load i32, ptr %12, align 4, !tbaa !57
  %37 = getelementptr inbounds nuw %"struct.icu_77::(anonymous namespace)::RelDateFmtDataSink", ptr %16, i32 0, i32 2
  %38 = load i32, ptr %37, align 8, !tbaa !108
  %39 = icmp slt i32 %36, %38
  br i1 %39, label %40, label %76

40:                                               ; preds = %35
  %41 = getelementptr inbounds nuw %"struct.icu_77::(anonymous namespace)::RelDateFmtDataSink", ptr %16, i32 0, i32 1
  %42 = load ptr, ptr %41, align 8, !tbaa !105
  %43 = load i32, ptr %12, align 4, !tbaa !57
  %44 = sext i32 %43 to i64
  %45 = getelementptr inbounds %"struct.icu_77::URelativeString", ptr %42, i64 %44
  %46 = getelementptr inbounds nuw %"struct.icu_77::URelativeString", ptr %45, i32 0, i32 2
  %47 = load ptr, ptr %46, align 8, !tbaa !70
  %48 = icmp eq ptr %47, null
  br i1 %48, label %49, label %76

49:                                               ; preds = %40
  %50 = load i32, ptr %15, align 4, !tbaa !57
  %51 = getelementptr inbounds nuw %"struct.icu_77::(anonymous namespace)::RelDateFmtDataSink", ptr %16, i32 0, i32 1
  %52 = load ptr, ptr %51, align 8, !tbaa !105
  %53 = load i32, ptr %12, align 4, !tbaa !57
  %54 = sext i32 %53 to i64
  %55 = getelementptr inbounds %"struct.icu_77::URelativeString", ptr %52, i64 %54
  %56 = getelementptr inbounds nuw %"struct.icu_77::URelativeString", ptr %55, i32 0, i32 0
  store i32 %50, ptr %56, align 8, !tbaa !68
  %57 = load ptr, ptr %8, align 8, !tbaa !116
  %58 = load ptr, ptr %10, align 8, !tbaa !43
  %59 = load ptr, ptr %57, align 8, !tbaa !8
  %60 = getelementptr inbounds ptr, ptr %59, i64 4
  %61 = load ptr, ptr %60, align 8
  %62 = call noundef ptr %61(ptr noundef nonnull align 8 dereferenceable(8) %57, ptr noundef nonnull align 4 dereferenceable(4) %13, ptr noundef nonnull align 4 dereferenceable(4) %58)
  %63 = getelementptr inbounds nuw %"struct.icu_77::(anonymous namespace)::RelDateFmtDataSink", ptr %16, i32 0, i32 1
  %64 = load ptr, ptr %63, align 8, !tbaa !105
  %65 = load i32, ptr %12, align 4, !tbaa !57
  %66 = sext i32 %65 to i64
  %67 = getelementptr inbounds %"struct.icu_77::URelativeString", ptr %64, i64 %66
  %68 = getelementptr inbounds nuw %"struct.icu_77::URelativeString", ptr %67, i32 0, i32 2
  store ptr %62, ptr %68, align 8, !tbaa !70
  %69 = load i32, ptr %13, align 4, !tbaa !57
  %70 = getelementptr inbounds nuw %"struct.icu_77::(anonymous namespace)::RelDateFmtDataSink", ptr %16, i32 0, i32 1
  %71 = load ptr, ptr %70, align 8, !tbaa !105
  %72 = load i32, ptr %12, align 4, !tbaa !57
  %73 = sext i32 %72 to i64
  %74 = getelementptr inbounds %"struct.icu_77::URelativeString", ptr %71, i64 %73
  %75 = getelementptr inbounds nuw %"struct.icu_77::URelativeString", ptr %74, i32 0, i32 1
  store i32 %69, ptr %75, align 4, !tbaa !71
  br label %76

76:                                               ; preds = %49, %40, %35, %28
  call void @llvm.lifetime.end.p0(i64 4, ptr %15) #13
  br label %77

77:                                               ; preds = %76
  %78 = load i32, ptr %14, align 4, !tbaa !57
  %79 = add nsw i32 %78, 1
  store i32 %79, ptr %14, align 4, !tbaa !57
  br label %22, !llvm.loop !118

80:                                               ; preds = %27
  call void @llvm.lifetime.end.p0(i64 4, ptr %13) #13
  call void @llvm.lifetime.end.p0(i64 4, ptr %12) #13
  call void @llvm.lifetime.end.p0(i64 40, ptr %11) #13
  ret void
}