; Function Attrs: mustprogress uwtable
define internal void @_ZN6icu_7712_GLOBAL__N_118RelDateFmtDataSink3putEPKcRNS_13ResourceValueEaR10UErrorCode(ptr noundef nonnull readonly align 8 captures(none) dereferenceable(20) %0, ptr noundef %1, ptr noundef nonnull align 8 dereferenceable(8) %2, i8 signext %3, ptr noundef nonnull align 4 dereferenceable(4) %4) unnamed_addr #1 align 2 {
  %6 = alloca ptr, align 8
  %7 = alloca %"class.icu_77::ResourceTable", align 8
  %8 = alloca i32, align 4
  store ptr %1, ptr %6, align 8, !tbaa !70
  call void @llvm.lifetime.start.p0(i64 40, ptr nonnull %7) #15
  %9 = load ptr, ptr %2, align 8, !tbaa !3
  %10 = getelementptr inbounds nuw i8, ptr %9, i64 88
  %11 = load ptr, ptr %10, align 8
  call void %11(ptr dead_on_unwind nonnull writable sret(%"class.icu_77::ResourceTable") align 8 %7, ptr noundef nonnull align 8 dereferenceable(8) %2, ptr noundef nonnull align 4 dereferenceable(4) %4)
  call void @llvm.lifetime.start.p0(i64 4, ptr nonnull %8) #15
  store i32 0, ptr %8, align 4, !tbaa !44
  %12 = call noundef signext i8 @_ZNK6icu_7713ResourceTable14getKeyAndValueEiRPKcRNS_13ResourceValueE(ptr noundef nonnull align 8 dereferenceable(37) %7, i32 noundef 0, ptr noundef nonnull align 8 dereferenceable(8) %6, ptr noundef nonnull align 8 dereferenceable(8) %2)
  %.not18 = icmp eq i8 %12, 0
  br i1 %.not18, label %._crit_edge, label %.lr.ph

.lr.ph:                                           ; preds = %5
  %13 = getelementptr inbounds nuw i8, ptr %0, i64 16
  %14 = getelementptr inbounds nuw i8, ptr %0, i64 8
  br label %15

._crit_edge:                                      ; preds = %39, %5
  call void @llvm.lifetime.end.p0(i64 4, ptr nonnull %8) #15
  call void @llvm.lifetime.end.p0(i64 40, ptr nonnull %7) #15
  ret void

15:                                               ; preds = %.lr.ph, %39
  %.019 = phi i32 [ 0, %.lr.ph ], [ %40, %39 ]
  %16 = load ptr, ptr %6, align 8, !tbaa !70
  %17 = call i64 @strtol(ptr noundef nonnull captures(none) %16, ptr noundef null, i32 noundef 10) #15
  %18 = trunc i64 %17 to i32
  %19 = add nsw i32 %18, 2
  %20 = icmp sgt i32 %18, -3
  %21 = load i32, ptr %13, align 8
  %22 = icmp slt i32 %19, %21
  %or.cond = select i1 %20, i1 %22, i1 false
  br i1 %or.cond, label %23, label %39

23:                                               ; preds = %15
  %24 = load ptr, ptr %14, align 8, !tbaa !49
  %25 = zext nneg i32 %19 to i64
  %26 = getelementptr inbounds nuw %"struct.icu_77::URelativeString", ptr %24, i64 %25
  %27 = getelementptr inbounds nuw i8, ptr %26, i64 8
  %28 = load ptr, ptr %27, align 8, !tbaa !55
  %29 = icmp eq ptr %28, null
  br i1 %29, label %30, label %39

30:                                               ; preds = %23
  store i32 %18, ptr %26, align 8, !tbaa !53
  %31 = load ptr, ptr %2, align 8, !tbaa !3
  %32 = getelementptr inbounds nuw i8, ptr %31, i64 32
  %33 = load ptr, ptr %32, align 8
  %34 = call noundef ptr %33(ptr noundef nonnull align 8 dereferenceable(8) %2, ptr noundef nonnull align 4 dereferenceable(4) %8, ptr noundef nonnull align 4 dereferenceable(4) %4)
  %35 = load ptr, ptr %14, align 8, !tbaa !49
  %36 = getelementptr inbounds nuw %"struct.icu_77::URelativeString", ptr %35, i64 %25, i32 2
  store ptr %34, ptr %36, align 8, !tbaa !55
  %37 = load i32, ptr %8, align 4, !tbaa !44
  %38 = getelementptr inbounds nuw %"struct.icu_77::URelativeString", ptr %35, i64 %25, i32 1
  store i32 %37, ptr %38, align 4, !tbaa !56
  br label %39

39:                                               ; preds = %30, %23, %15
  %40 = add nuw nsw i32 %.019, 1
  %41 = call noundef signext i8 @_ZNK6icu_7713ResourceTable14getKeyAndValueEiRPKcRNS_13ResourceValueE(ptr noundef nonnull align 8 dereferenceable(37) %7, i32 noundef %40, ptr noundef nonnull align 8 dereferenceable(8) %6, ptr noundef nonnull align 8 dereferenceable(8) %2)
  %.not = icmp eq i8 %41, 0
  br i1 %.not, label %._crit_edge, label %15, !llvm.loop !71
}